Certificate:
    Data:
        Version: 3 (0x2)
        Serial Number: 2 (0x2)
    Signature Algorithm: sha256WithRSAEncryption
        Issuer: C=DE, ST=NRW, L=Aachen, O=Home, OU=RPHS, CN=RPHS/name=RPHS/emailAddress=igorsowa9@gmial.com
        Validity
            Not Before: Dec 23 11:40:13 2017 GMT
            Not After : Dec 21 11:40:13 2027 GMT
        Subject: C=DE, ST=NRW, L=Aachen, O=Home, OU=RPHS, CN=igor001/name=RPHS/emailAddress=igorsowa9@gmial.com
        Subject Public Key Info:
            Public Key Algorithm: rsaEncryption
                Public-Key: (2048 bit)
                Modulus:
                    00:ee:5e:72:ef:a2:c2:35:40:bf:f7:59:23:6a:f2:
                    81:eb:3a:8c:22:8e:6f:7a:e9:fd:9d:14:1e:99:3b:
                    fc:96:5d:00:b4:c3:a0:99:51:f9:3c:d9:81:77:27:
                    8e:35:6f:a7:07:bf:82:20:70:ba:bc:02:1e:1e:b6:
                    b9:e0:ff:90:c7:2f:31:39:fb:45:cb:71:69:c2:2b:
                    bf:ed:fe:5c:07:a4:73:80:e1:ee:61:ca:d5:e2:7c:
                    d8:02:3c:83:6d:5c:b4:bc:f6:da:3b:1d:4b:0d:ac:
                    8a:be:f8:2a:a0:28:65:02:a7:2e:44:c4:19:3c:8a:
                    d3:e3:ea:cf:e1:9e:e3:75:1c:9c:fb:4d:6c:1b:55:
                    63:e9:3c:62:bb:fe:c5:7d:2b:08:d8:c0:8b:ef:db:
                    a5:b1:79:90:42:57:bb:7e:b6:c5:50:57:25:fd:3f:
                    32:82:0c:f0:42:6a:bc:c9:0f:9a:2e:75:cc:3d:9d:
                    c5:92:94:b4:ee:35:41:e6:5b:54:02:47:9a:1f:01:
                    15:90:4f:85:ec:bb:ae:63:17:21:d5:2b:17:35:07:
                    83:aa:a8:ad:fb:65:64:af:f8:39:8c:d9:aa:fa:5c:
                    c3:9f:95:c7:04:a3:2d:8d:a4:8a:df:7a:6e:78:c7:
                    13:2c:27:3c:c0:b4:1d:04:e9:aa:11:c2:5d:31:31:
                    48:13
                Exponent: 65537 (0x10001)
        X509v3 extensions:
            X509v3 Basic Constraints: 
                CA:FALSE
            Netscape Comment: 
                Easy-RSA Generated Certificate
            X509v3 Subject Key Identifier: 
                19:0A:9C:44:FF:87:25:0F:63:70:D6:A2:EB:BC:10:42:1B:3A:8D:20
            X509v3 Authority Key Identifier: 
                keyid:41:BB:CE:36:07:38:80:B8:2C:E7:41:B1:88:87:DD:D2:4E:FE:2E:7E
                DirName:/C=DE/ST=NRW/L=Aachen/O=Home/OU=RPHS/CN=RPHS/name=RPHS/emailAddress=igorsowa9@gmial.com
                serial:C2:55:63:56:DE:10:C3:94

            X509v3 Extended Key Usage: 
                TLS Web Client Authentication
            X509v3 Key Usage: 
                Digital Signature
            X509v3 Subject Alternative Name: 
                DNS:igor001
    Signature Algorithm: sha256WithRSAEncryption
         58:52:45:7e:5e:68:cc:8e:8d:c6:68:92:e4:e5:22:99:d6:61:
         98:ef:48:9e:77:59:5f:30:0a:bd:37:29:d4:0d:61:ec:5b:51:
         a2:ca:74:e2:dd:63:1b:5c:4e:35:46:56:12:7d:5d:02:79:5c:
         b3:b8:c7:c0:62:54:3b:fd:d2:18:16:60:4b:38:bb:bd:e3:bb:
         f1:9d:b9:49:84:85:cf:28:c8:a1:da:3a:e2:78:46:65:98:b5:
         ec:85:be:29:db:de:d1:84:a0:2c:43:79:4e:44:54:0a:1e:a5:
         4b:9a:82:cf:e1:db:6c:b7:9f:c9:88:92:b1:35:9d:77:36:f5:
         3f:c7:a6:bc:6f:66:5c:e2:dc:17:96:42:48:b4:64:26:86:e3:
         34:33:c1:e9:53:31:50:c7:5b:4d:0c:dd:9e:6c:4c:04:f7:f0:
         b3:27:50:5f:da:5c:52:ad:fc:ef:2d:ab:b9:93:45:8f:ea:8b:
         d4:f6:67:8b:90:4c:68:8d:d7:91:0d:02:bf:c4:4e:a8:c7:a4:
         b7:ea:6f:89:9d:68:fa:e7:81:7f:c5:f0:80:d2:65:8c:cd:cf:
         00:ef:81:e7:ae:4c:fe:e2:d5:09:83:2c:3c:42:b0:68:2b:e7:
         5b:64:f1:d8:8c:2c:4d:46:31:fe:e1:7b:ec:aa:f0:af:b0:49:
         6a:ed:6b:a1
-----BEGIN CERTIFICATE-----
MIIE8TCCA9mgAwIBAgIBAjANBgkqhkiG9w0BAQsFADCBjDELMAkGA1UEBhMCREUx
DDAKBgNVBAgTA05SVzEPMA0GA1UEBxMGQWFjaGVuMQ0wCwYDVQQKEwRIb21lMQ0w
CwYDVQQLEwRSUEhTMQ0wCwYDVQQDEwRSUEhTMQ0wCwYDVQQpEwRSUEhTMSIwIAYJ
KoZIhvcNAQkBFhNpZ29yc293YTlAZ21pYWwuY29tMB4XDTE3MTIyMzExNDAxM1oX
DTI3MTIyMTExNDAxM1owgY8xCzAJBgNVBAYTAkRFMQwwCgYDVQQIEwNOUlcxDzAN
BgNVBAcTBkFhY2hlbjENMAsGA1UEChMESG9tZTENMAsGA1UECxMEUlBIUzEQMA4G
A1UEAxMHaWdvcjAwMTENMAsGA1UEKRMEUlBIUzEiMCAGCSqGSIb3DQEJARYTaWdv
cnNvd2E5QGdtaWFsLmNvbTCCASIwDQYJKoZIhvcNAQEBBQADggEPADCCAQoCggEB
AO5ecu+iwjVAv/dZI2ryges6jCKOb3rp/Z0UHpk7/JZdALTDoJlR+TzZgXcnjjVv
pwe/giBwurwCHh62ueD/kMcvMTn7RctxacIrv+3+XAekc4Dh7mHK1eJ82AI8g21c
tLz22jsdSw2sir74KqAoZQKnLkTEGTyK0+Pqz+Ge43UcnPtNbBtVY+k8Yrv+xX0r
CNjAi+/bpbF5kEJXu362xVBXJf0/MoIM8EJqvMkPmi51zD2dxZKUtO41QeZbVAJH
mh8BFZBPhey7rmMXIdUrFzUHg6qorftlZK/4OYzZqvpcw5+VxwSjLY2kit96bnjH
EywnPMC0HQTpqhHCXTExSBMCAwEAAaOCAVcwggFTMAkGA1UdEwQCMAAwLQYJYIZI
AYb4QgENBCAWHkVhc3ktUlNBIEdlbmVyYXRlZCBDZXJ0aWZpY2F0ZTAdBgNVHQ4E
FgQUGQqcRP+HJQ9jcNai67wQQhs6jSAwgcEGA1UdIwSBuTCBtoAUQbvONgc4gLgs
50GxiIfd0k7+Ln6hgZKkgY8wgYwxCzAJBgNVBAYTAkRFMQwwCgYDVQQIEwNOUlcx
DzANBgNVBAcTBkFhY2hlbjENMAsGA1UEChMESG9tZTENMAsGA1UECxMEUlBIUzEN
MAsGA1UEAxMEUlBIUzENMAsGA1UEKRMEUlBIUzEiMCAGCSqGSIb3DQEJARYTaWdv
cnNvd2E5QGdtaWFsLmNvbYIJAMJVY1beEMOUMBMGA1UdJQQMMAoGCCsGAQUFBwMC
MAsGA1UdDwQEAwIHgDASBgNVHREECzAJggdpZ29yMDAxMA0GCSqGSIb3DQEBCwUA
A4IBAQBYUkV+XmjMjo3GaJLk5SKZ1mGY70ied1lfMAq9NynUDWHsW1GiynTi3WMb
XE41RlYSfV0CeVyzuMfAYlQ7/dIYFmBLOLu947vxnblJhIXPKMih2jrieEZlmLXs
hb4p297RhKAsQ3lORFQKHqVLmoLP4dtst5/JiJKxNZ13NvU/x6a8b2Zc4twXlkJI
tGQmhuM0M8HpUzFQx1tNDN2ebEwE9/CzJ1Bf2lxSrfzvLau5k0WP6ovU9meLkExo
jdeRDQK/xE6ox6S36m+JnWj654F/xfCA0mWMzc8A74Hnrkz+4tUJgyw8QrBoK+db
ZPHYjCxNRjH+4XvsqvCvsElq7Wuh
-----END CERTIFICATE-----
